target datalayout = "e-m:e-p270:32:32-p271:32:32-p272:64:64-i64:64-i128:128-f80:128-n8:16:32:64-S128"
target triple = "x86_64-unknown-linux-gnu"

%struct.ChardevClass = type { %struct.ObjectClass, i8, i8, ptr, ptr, ptr, ptr, ptr, ptr, ptr, ptr, ptr, ptr, ptr, ptr, ptr, ptr, ptr, ptr }
%struct.ObjectClass = type { ptr, ptr, [4 x ptr], [4 x ptr], ptr, ptr }

@.str.1 = private unnamed_addr constant [8 x i8] c"chardev\00", align 1
@.str.2 = private unnamed_addr constant [101 x i8] c"/home/dtcxzyw/WorkSpace/Projects/compilers/llvm-opt-benchmark/bench/qemu/qemu/include/chardev/char.h\00", align 1
@__func__.CHARDEV_CLASS = private unnamed_addr constant [14 x i8] c"CHARDEV_CLASS\00", align 1

; Function Attrs: nounwind sspstrong uwtable
define internal ptr @CHARDEV_CLASS(ptr noundef %klass) #0 {
entry:
  %klass.addr = alloca ptr, align 8
  store ptr %klass, ptr %klass.addr, align 8
  %0 = load ptr, ptr %klass.addr, align 8
  %call = call ptr @object_class_dynamic_cast_assert(ptr noundef %0, ptr noundef @.str.1, ptr noundef @.str.2, i32 noundef 231, ptr noundef @__func__.CHARDEV_CLASS)
  ret ptr %call
}

; Function Attrs: nounwind sspstrong uwtable
define internal void @char_pty_class_init(ptr noundef %oc, ptr noundef %data) #0 {
entry:
  %oc.addr = alloca ptr, align 8
  %data.addr = alloca ptr, align 8
  %cc = alloca ptr, align 8
  store ptr %oc, ptr %oc.addr, align 8
  store ptr %data, ptr %data.addr, align 8
  %0 = load ptr, ptr %oc.addr, align 8
  %call = call ptr @CHARDEV_CLASS(ptr noundef %0)
  store ptr %call, ptr %cc, align 8
  %1 = load ptr, ptr %cc, align 8
  %open = getelementptr inbounds %struct.ChardevClass, ptr %1, i32 0, i32 4
  store ptr @char_pty_open, ptr %open, align 8
  %2 = load ptr, ptr %cc, align 8
  %chr_write = getelementptr inbounds %struct.ChardevClass, ptr %2, i32 0, i32 5
  store ptr @char_pty_chr_write, ptr %chr_write, align 8
  %3 = load ptr, ptr %cc, align 8
  %chr_update_read_handler = getelementptr inbounds %struct.ChardevClass, ptr %3, i32 0, i32 8
  store ptr @pty_chr_update_read_handler, ptr %chr_update_read_handler, align 8
  %4 = load ptr, ptr %cc, align 8
  %chr_add_watch = getelementptr inbounds %struct.ChardevClass, ptr %4, i32 0, i32 7
  store ptr @pty_chr_add_watch, ptr %chr_add_watch, align 8
  ret void
}