; Function Attrs: nounwind sspstrong uwtable
define internal void @char_pty_class_init(ptr noundef %oc, ptr readnone captures(none) %data) #0 {
entry:
  %call.i = tail call ptr @object_class_dynamic_cast_assert(ptr noundef %oc, ptr noundef nonnull @.str.1, ptr noundef nonnull @.str.2, i32 noundef 231, ptr noundef nonnull @__func__.CHARDEV_CLASS) #9
  %open = getelementptr inbounds nuw i8, ptr %call.i, i64 112
  store ptr @char_pty_open, ptr %open, align 8
  %chr_write = getelementptr inbounds nuw i8, ptr %call.i, i64 120
  store ptr @char_pty_chr_write, ptr %chr_write, align 8
  %chr_update_read_handler = getelementptr inbounds nuw i8, ptr %call.i, i64 144
  store ptr @pty_chr_update_read_handler, ptr %chr_update_read_handler, align 8
  %chr_add_watch = getelementptr inbounds nuw i8, ptr %call.i, i64 136
  store ptr @pty_chr_add_watch, ptr %chr_add_watch, align 8
  ret void
}